target datalayout = "e-m:e-p270:32:32-p271:32:32-p272:64:64-i64:64-i128:128-f80:128-n8:16:32:64-S128"
target triple = "x86_64-pc-linux-gnu"

%struct._typeobject = type { %struct.PyVarObject, ptr, i64, i64, ptr, i64, ptr, ptr, ptr, ptr, ptr, ptr, ptr, ptr, ptr, ptr, ptr, ptr, ptr, i64, ptr, ptr, ptr, ptr, i64, ptr, ptr, ptr, ptr, ptr, ptr, ptr, ptr, ptr, i64, ptr, ptr, ptr, ptr, ptr, ptr, ptr, ptr, ptr, ptr, ptr, i32, ptr, ptr, i8, i16 }
%struct.PyVarObject = type { %struct._object, i64 }
%struct._object = type { %union.anon, ptr }
%union.anon = type { i64 }
%struct.PyASCIIObject = type { %struct._object, i64, i64, %struct.anon.46 }
%struct.anon.46 = type { i16, i16 }
%struct.anon = type { i32, i32 }

@PyUnicode_Type = external global %struct._typeobject, align 8

; Function Attrs: inlinehint nounwind uwtable
define internal ptr @_Py_TYPE(ptr noundef %0) #2 {
  %2 = alloca ptr, align 8
  store ptr %0, ptr %2, align 8, !tbaa !27
  %3 = load ptr, ptr %2, align 8, !tbaa !27
  %4 = getelementptr inbounds nuw %struct._object, ptr %3, i32 0, i32 1
  %5 = load ptr, ptr %4, align 8, !tbaa !65
  ret ptr %5
}

; Function Attrs: alwaysinline nounwind uwtable
define internal void @Py_INCREF(ptr noundef %0) #6 {
  %2 = alloca ptr, align 8
  %3 = alloca i32, align 4
  %4 = alloca i32, align 4
  store ptr %0, ptr %2, align 8, !tbaa !27
  call void @llvm.lifetime.start.p0(i64 4, ptr %3) #10
  %5 = load ptr, ptr %2, align 8, !tbaa !27
  %6 = getelementptr inbounds nuw %struct._object, ptr %5, i32 0, i32 0
  %7 = getelementptr inbounds nuw %struct.anon, ptr %6, i32 0, i32 0
  %8 = load i32, ptr %7, align 8, !tbaa !38
  store i32 %8, ptr %3, align 4, !tbaa !28
  %9 = load i32, ptr %3, align 4, !tbaa !28
  %10 = icmp slt i32 %9, 0
  br i1 %10, label %11, label %12

11:                                               ; preds = %1
  store i32 1, ptr %4, align 4
  br label %18

12:                                               ; preds = %1
  %13 = load i32, ptr %3, align 4, !tbaa !28
  %14 = add i32 %13, 1
  %15 = load ptr, ptr %2, align 8, !tbaa !27
  %16 = getelementptr inbounds nuw %struct._object, ptr %15, i32 0, i32 0
  %17 = getelementptr inbounds nuw %struct.anon, ptr %16, i32 0, i32 0
  store i32 %14, ptr %17, align 8, !tbaa !38
  store i32 0, ptr %4, align 4
  br label %18

18:                                               ; preds = %12, %11
  call void @llvm.lifetime.end.p0(i64 4, ptr %3) #10
  %19 = load i32, ptr %4, align 4
  switch i32 %19, label %21 [
    i32 0, label %20
    i32 1, label %20
  ]

20:                                               ; preds = %18, %18
  ret void

21:                                               ; preds = %18
  unreachable
}

; Function Attrs: inlinehint nounwind uwtable
define internal i32 @Py_IS_TYPE(ptr noundef %0, ptr noundef %1) #2 {
  %3 = alloca ptr, align 8
  %4 = alloca ptr, align 8
  store ptr %0, ptr %3, align 8, !tbaa !27
  store ptr %1, ptr %4, align 8, !tbaa !56
  %5 = load ptr, ptr %3, align 8, !tbaa !27
  %6 = call ptr @_Py_TYPE(ptr noundef %5)
  %7 = load ptr, ptr %4, align 8, !tbaa !56
  %8 = icmp eq ptr %6, %7
  %9 = zext i1 %8 to i32
  ret i32 %9
}

; Function Attrs: inlinehint nounwind uwtable
define internal ptr @_Py_NewRef(ptr noundef %0) #2 {
  %2 = alloca ptr, align 8
  store ptr %0, ptr %2, align 8, !tbaa !27
  %3 = load ptr, ptr %2, align 8, !tbaa !27
  call void @Py_INCREF(ptr noundef %3)
  %4 = load ptr, ptr %2, align 8, !tbaa !27
  ret ptr %4
}

; Function Attrs: inlinehint nounwind uwtable
define internal i64 @_PyObject_HashFast(ptr noundef %0) #2 {
  %2 = alloca i64, align 8
  %3 = alloca ptr, align 8
  %4 = alloca i64, align 8
  %5 = alloca i32, align 4
  store ptr %0, ptr %3, align 8, !tbaa !27
  %6 = load ptr, ptr %3, align 8, !tbaa !27
  %7 = call i32 @Py_IS_TYPE(ptr noundef %6, ptr noundef @PyUnicode_Type)
  %8 = icmp ne i32 %7, 0
  br i1 %8, label %9, label %21

9:                                                ; preds = %1
  call void @llvm.lifetime.start.p0(i64 8, ptr %4) #10
  %10 = load ptr, ptr %3, align 8, !tbaa !27
  %11 = getelementptr inbounds nuw %struct.PyASCIIObject, ptr %10, i32 0, i32 2
  %12 = load i64, ptr %11, align 8, !tbaa !67
  store i64 %12, ptr %4, align 8, !tbaa !39
  %13 = load i64, ptr %4, align 8, !tbaa !39
  %14 = icmp ne i64 %13, -1
  br i1 %14, label %15, label %17

15:                                               ; preds = %9
  %16 = load i64, ptr %4, align 8, !tbaa !39
  store i64 %16, ptr %2, align 8
  store i32 1, ptr %5, align 4
  br label %18

17:                                               ; preds = %9
  store i32 0, ptr %5, align 4
  br label %18

18:                                               ; preds = %17, %15
  call void @llvm.lifetime.end.p0(i64 8, ptr %4) #10
  %19 = load i32, ptr %5, align 4
  switch i32 %19, label %26 [
    i32 0, label %20
    i32 1, label %24
  ]

20:                                               ; preds = %18
  br label %21

21:                                               ; preds = %20, %1
  %22 = load ptr, ptr %3, align 8, !tbaa !27
  %23 = call i64 @PyObject_Hash(ptr noundef %22)
  store i64 %23, ptr %2, align 8
  br label %24

24:                                               ; preds = %21, %18
  %25 = load i64, ptr %2, align 8
  ret i64 %25

26:                                               ; preds = %18
  unreachable
}

; Function Attrs: nounwind uwtable
define hidden i32 @_PyDict_GetItemRef_Unicode_LockHeld(ptr noundef %0, ptr noundef %1, ptr noundef %2) #0 {
  %4 = alloca i32, align 4
  %5 = alloca ptr, align 8
  %6 = alloca ptr, align 8
  %7 = alloca ptr, align 8
  %8 = alloca i64, align 8
  %9 = alloca i32, align 4
  %10 = alloca ptr, align 8
  %11 = alloca i64, align 8
  store ptr %0, ptr %5, align 8, !tbaa !29
  store ptr %1, ptr %6, align 8, !tbaa !27
  store ptr %2, ptr %7, align 8, !tbaa !77
  call void @llvm.lifetime.start.p0(i64 8, ptr %8) #10
  %12 = load ptr, ptr %6, align 8, !tbaa !27
  %13 = call i64 @_PyObject_HashFast(ptr noundef %12)
  store i64 %13, ptr %8, align 8, !tbaa !39
  %14 = load i64, ptr %8, align 8, !tbaa !39
  %15 = icmp eq i64 %14, -1
  br i1 %15, label %16, label %18

16:                                               ; preds = %3
  %17 = load ptr, ptr %7, align 8, !tbaa !77
  store ptr null, ptr %17, align 8, !tbaa !27
  store i32 -1, ptr %4, align 4
  store i32 1, ptr %9, align 4
  br label %37

18:                                               ; preds = %3
  call void @llvm.lifetime.start.p0(i64 8, ptr %10) #10
  call void @llvm.lifetime.start.p0(i64 8, ptr %11) #10
  %19 = load ptr, ptr %5, align 8, !tbaa !29
  %20 = load ptr, ptr %6, align 8, !tbaa !27
  %21 = load i64, ptr %8, align 8, !tbaa !39
  %22 = call i64 @_Py_dict_lookup(ptr noundef %19, ptr noundef %20, i64 noundef %21, ptr noundef %10)
  store i64 %22, ptr %11, align 8, !tbaa !39
  %23 = load i64, ptr %11, align 8, !tbaa !39
  %24 = icmp eq i64 %23, -3
  br i1 %24, label %25, label %27

25:                                               ; preds = %18
  %26 = load ptr, ptr %7, align 8, !tbaa !77
  store ptr null, ptr %26, align 8, !tbaa !27
  store i32 -1, ptr %4, align 4
  store i32 1, ptr %9, align 4
  br label %36

27:                                               ; preds = %18
  %28 = load ptr, ptr %10, align 8, !tbaa !27
  %29 = icmp eq ptr %28, null
  br i1 %29, label %30, label %32

30:                                               ; preds = %27
  %31 = load ptr, ptr %7, align 8, !tbaa !77
  store ptr null, ptr %31, align 8, !tbaa !27
  store i32 0, ptr %4, align 4
  store i32 1, ptr %9, align 4
  br label %36

32:                                               ; preds = %27
  %33 = load ptr, ptr %10, align 8, !tbaa !27
  %34 = call ptr @_Py_NewRef(ptr noundef %33)
  %35 = load ptr, ptr %7, align 8, !tbaa !77
  store ptr %34, ptr %35, align 8, !tbaa !27
  store i32 1, ptr %4, align 4
  store i32 1, ptr %9, align 4
  br label %36

36:                                               ; preds = %32, %30, %25
  call void @llvm.lifetime.end.p0(i64 8, ptr %11) #10
  call void @llvm.lifetime.end.p0(i64 8, ptr %10) #10
  br label %37

37:                                               ; preds = %36, %16
  call void @llvm.lifetime.end.p0(i64 8, ptr %8) #10
  %38 = load i32, ptr %4, align 4
  ret i32 %38
}