; Function Attrs: nounwind uwtable
define hidden range(i32 -1, 2) i32 @_PyDict_GetItemRef_Unicode_LockHeld(ptr noundef readonly captures(none) %0, ptr noundef %1, ptr noundef writeonly captures(none) initializes((0, 8)) %2) local_unnamed_addr #0 {
  %4 = alloca ptr, align 8
  %5 = getelementptr i8, ptr %1, i64 8
  %.val.i = load ptr, ptr %5, align 8, !tbaa !25
  %.not.i = icmp eq ptr %.val.i, @PyUnicode_Type
  br i1 %.not.i, label %6, label %_PyObject_HashFast.exit

6:                                                ; preds = %3
  %7 = getelementptr inbounds nuw i8, ptr %1, i64 24
  %8 = load i64, ptr %7, align 8, !tbaa !55
  %.not7.not.i = icmp eq i64 %8, -1
  br i1 %.not7.not.i, label %_PyObject_HashFast.exit, label %_PyObject_HashFast.exit.thread

_PyObject_HashFast.exit:                          ; preds = %3, %6
  %9 = tail call i64 @PyObject_Hash(ptr noundef nonnull %1) #23
  %10 = icmp eq i64 %9, -1
  br i1 %10, label %11, label %_PyObject_HashFast.exit.thread

11:                                               ; preds = %_PyObject_HashFast.exit
  store ptr null, ptr %2, align 8, !tbaa !64
  br label %22

_PyObject_HashFast.exit.thread:                   ; preds = %6, %_PyObject_HashFast.exit
  %.1.i13 = phi i64 [ %9, %_PyObject_HashFast.exit ], [ %8, %6 ]
  call void @llvm.lifetime.start.p0(i64 8, ptr nonnull %4) #23
  %12 = call i64 @_Py_dict_lookup(ptr noundef %0, ptr noundef nonnull %1, i64 noundef %.1.i13, ptr noundef nonnull %4)
  %13 = icmp eq i64 %12, -3
  br i1 %13, label %_Py_NewRef.exit, label %14

14:                                               ; preds = %_PyObject_HashFast.exit.thread
  %15 = load ptr, ptr %4, align 8, !tbaa !64
  %16 = icmp eq ptr %15, null
  br i1 %16, label %_Py_NewRef.exit, label %17

17:                                               ; preds = %14
  %18 = load i32, ptr %15, align 8, !tbaa !41
  %19 = icmp slt i32 %18, 0
  br i1 %19, label %_Py_NewRef.exit, label %20

20:                                               ; preds = %17
  %21 = add nuw i32 %18, 1
  store i32 %21, ptr %15, align 8, !tbaa !41
  br label %_Py_NewRef.exit

_Py_NewRef.exit:                                  ; preds = %20, %17, %14, %_PyObject_HashFast.exit.thread
  %.sink = phi ptr [ null, %_PyObject_HashFast.exit.thread ], [ null, %14 ], [ %15, %17 ], [ %15, %20 ]
  %.1 = phi i32 [ -1, %_PyObject_HashFast.exit.thread ], [ 0, %14 ], [ 1, %17 ], [ 1, %20 ]
  store ptr %.sink, ptr %2, align 8, !tbaa !64
  call void @llvm.lifetime.end.p0(i64 8, ptr nonnull %4) #23
  br label %22

22:                                               ; preds = %_Py_NewRef.exit, %11
  %.0 = phi i32 [ -1, %11 ], [ %.1, %_Py_NewRef.exit ]
  ret i32 %.0
}